target datalayout = "e-m:e-p270:32:32-p271:32:32-p272:64:64-i64:64-i128:128-f80:128-n8:16:32:64-S128"
target triple = "x86_64-pc-linux-gnu"

%"class.icu_77::RBBINode" = type { i32, ptr, ptr, ptr, ptr, i32, %"class.icu_77::UnicodeString", i32, i32, i8, i32, i8, i8, i8, ptr, ptr, ptr }
%"class.icu_77::UnicodeString" = type { %"class.icu_77::Replaceable", %"union.icu_77::UnicodeString::StackBufferOrFields" }
%"class.icu_77::Replaceable" = type { %"class.icu_77::UObject" }
%"class.icu_77::UObject" = type { ptr }
%"union.icu_77::UnicodeString::StackBufferOrFields" = type { %struct.anon.0, [32 x i8] }
%struct.anon.0 = type { i16, i32, i32, ptr }

@_ZN6icu_778RBBINodeD1Ev = unnamed_addr alias void (ptr), ptr @_ZN6icu_778RBBINodeD2Ev

; Function Attrs: noinline noreturn nounwind uwtable
define linkonce_odr hidden void @__clang_call_terminate(ptr noundef %0) #4 comdat {
  %2 = call ptr @__cxa_begin_catch(ptr %0) #10
  call void @_ZSt9terminatev() #12
  unreachable
}

; Function Attrs: mustprogress nounwind uwtable
define void @_ZN6icu_778RBBINode12NRDeleteNodeEPS0_(ptr noundef %0) #0 align 2 {
  %2 = alloca ptr, align 8
  %3 = alloca ptr, align 8
  %4 = alloca ptr, align 8
  %5 = alloca ptr, align 8
  store ptr %0, ptr %2, align 8, !tbaa !23
  %6 = load ptr, ptr %2, align 8, !tbaa !23
  %7 = icmp eq ptr %6, null
  br i1 %7, label %8, label %9

8:                                                ; preds = %1
  br label %115

9:                                                ; preds = %1
  call void @llvm.lifetime.start.p0(i64 8, ptr %3) #10
  %10 = load ptr, ptr %2, align 8, !tbaa !23
  %11 = getelementptr inbounds nuw %"class.icu_77::RBBINode", ptr %10, i32 0, i32 1
  %12 = load ptr, ptr %11, align 8, !tbaa !35
  store ptr %12, ptr %3, align 8, !tbaa !23
  call void @llvm.lifetime.start.p0(i64 8, ptr %4) #10
  %13 = load ptr, ptr %2, align 8, !tbaa !23
  store ptr %13, ptr %4, align 8, !tbaa !23
  br label %14

14:                                               ; preds = %113, %9
  %15 = load ptr, ptr %4, align 8, !tbaa !23
  %16 = load ptr, ptr %3, align 8, !tbaa !23
  %17 = icmp ne ptr %15, %16
  br i1 %17, label %18, label %21

18:                                               ; preds = %14
  %19 = load ptr, ptr %4, align 8, !tbaa !23
  %20 = icmp ne ptr %19, null
  br label %21

21:                                               ; preds = %18, %14
  %22 = phi i1 [ false, %14 ], [ %20, %18 ]
  br i1 %22, label %23, label %114

23:                                               ; preds = %21
  call void @llvm.lifetime.start.p0(i64 8, ptr %5) #10
  %24 = load ptr, ptr %4, align 8, !tbaa !23
  store ptr %24, ptr %5, align 8, !tbaa !23
  %25 = load ptr, ptr %5, align 8, !tbaa !23
  %26 = getelementptr inbounds nuw %"class.icu_77::RBBINode", ptr %25, i32 0, i32 2
  %27 = load ptr, ptr %26, align 8, !tbaa !36
  %28 = icmp eq ptr %27, null
  br i1 %28, label %29, label %34

29:                                               ; preds = %23
  %30 = load ptr, ptr %5, align 8, !tbaa !23
  %31 = getelementptr inbounds nuw %"class.icu_77::RBBINode", ptr %30, i32 0, i32 3
  %32 = load ptr, ptr %31, align 8, !tbaa !37
  %33 = icmp eq ptr %32, null
  br i1 %33, label %44, label %34

34:                                               ; preds = %29, %23
  %35 = load ptr, ptr %5, align 8, !tbaa !23
  %36 = getelementptr inbounds nuw %"class.icu_77::RBBINode", ptr %35, i32 0, i32 0
  %37 = load i32, ptr %36, align 8, !tbaa !27
  %38 = icmp eq i32 %37, 2
  br i1 %38, label %44, label %39

39:                                               ; preds = %34
  %40 = load ptr, ptr %5, align 8, !tbaa !23
  %41 = getelementptr inbounds nuw %"class.icu_77::RBBINode", ptr %40, i32 0, i32 0
  %42 = load i32, ptr %41, align 8, !tbaa !27
  %43 = icmp eq i32 %42, 0
  br i1 %43, label %44, label %75

44:                                               ; preds = %39, %34, %29
  %45 = load ptr, ptr %5, align 8, !tbaa !23
  %46 = getelementptr inbounds nuw %"class.icu_77::RBBINode", ptr %45, i32 0, i32 1
  %47 = load ptr, ptr %46, align 8, !tbaa !35
  store ptr %47, ptr %4, align 8, !tbaa !23
  %48 = load ptr, ptr %4, align 8, !tbaa !23
  %49 = icmp ne ptr %48, null
  br i1 %49, label %50, label %70

50:                                               ; preds = %44
  %51 = load ptr, ptr %4, align 8, !tbaa !23
  %52 = getelementptr inbounds nuw %"class.icu_77::RBBINode", ptr %51, i32 0, i32 2
  %53 = load ptr, ptr %52, align 8, !tbaa !36
  %54 = load ptr, ptr %5, align 8, !tbaa !23
  %55 = icmp eq ptr %53, %54
  br i1 %55, label %56, label %59

56:                                               ; preds = %50
  %57 = load ptr, ptr %4, align 8, !tbaa !23
  %58 = getelementptr inbounds nuw %"class.icu_77::RBBINode", ptr %57, i32 0, i32 2
  store ptr null, ptr %58, align 8, !tbaa !36
  br label %69

59:                                               ; preds = %50
  %60 = load ptr, ptr %4, align 8, !tbaa !23
  %61 = getelementptr inbounds nuw %"class.icu_77::RBBINode", ptr %60, i32 0, i32 3
  %62 = load ptr, ptr %61, align 8, !tbaa !37
  %63 = load ptr, ptr %5, align 8, !tbaa !23
  %64 = icmp eq ptr %62, %63
  br i1 %64, label %65, label %68

65:                                               ; preds = %59
  %66 = load ptr, ptr %4, align 8, !tbaa !23
  %67 = getelementptr inbounds nuw %"class.icu_77::RBBINode", ptr %66, i32 0, i32 3
  store ptr null, ptr %67, align 8, !tbaa !37
  br label %68

68:                                               ; preds = %65, %59
  br label %69

69:                                               ; preds = %68, %56
  br label %70

70:                                               ; preds = %69, %44
  %71 = load ptr, ptr %5, align 8, !tbaa !23
  %72 = icmp eq ptr %71, null
  br i1 %72, label %74, label %73

73:                                               ; preds = %70
  call void @_ZN6icu_778RBBINodeD1Ev(ptr noundef nonnull align 8 dereferenceable(160) %71) #10
  call void @_ZN6icu_777UMemorydlEPv(ptr noundef %71) #10
  br label %74

74:                                               ; preds = %73, %70
  br label %113

75:                                               ; preds = %39
  %76 = load ptr, ptr %5, align 8, !tbaa !23
  %77 = getelementptr inbounds nuw %"class.icu_77::RBBINode", ptr %76, i32 0, i32 2
  %78 = load ptr, ptr %77, align 8, !tbaa !36
  %79 = icmp ne ptr %78, null
  br i1 %79, label %80, label %93

80:                                               ; preds = %75
  %81 = load ptr, ptr %5, align 8, !tbaa !23
  %82 = getelementptr inbounds nuw %"class.icu_77::RBBINode", ptr %81, i32 0, i32 2
  %83 = load ptr, ptr %82, align 8, !tbaa !36
  store ptr %83, ptr %4, align 8, !tbaa !23
  %84 = load ptr, ptr %4, align 8, !tbaa !23
  %85 = getelementptr inbounds nuw %"class.icu_77::RBBINode", ptr %84, i32 0, i32 1
  %86 = load ptr, ptr %85, align 8, !tbaa !35
  %87 = icmp eq ptr %86, null
  br i1 %87, label %88, label %92

88:                                               ; preds = %80
  %89 = load ptr, ptr %5, align 8, !tbaa !23
  %90 = load ptr, ptr %4, align 8, !tbaa !23
  %91 = getelementptr inbounds nuw %"class.icu_77::RBBINode", ptr %90, i32 0, i32 1
  store ptr %89, ptr %91, align 8, !tbaa !35
  br label %92

92:                                               ; preds = %88, %80
  br label %112

93:                                               ; preds = %75
  %94 = load ptr, ptr %5, align 8, !tbaa !23
  %95 = getelementptr inbounds nuw %"class.icu_77::RBBINode", ptr %94, i32 0, i32 3
  %96 = load ptr, ptr %95, align 8, !tbaa !37
  %97 = icmp ne ptr %96, null
  br i1 %97, label %98, label %111

98:                                               ; preds = %93
  %99 = load ptr, ptr %5, align 8, !tbaa !23
  %100 = getelementptr inbounds nuw %"class.icu_77::RBBINode", ptr %99, i32 0, i32 3
  %101 = load ptr, ptr %100, align 8, !tbaa !37
  store ptr %101, ptr %4, align 8, !tbaa !23
  %102 = load ptr, ptr %4, align 8, !tbaa !23
  %103 = getelementptr inbounds nuw %"class.icu_77::RBBINode", ptr %102, i32 0, i32 1
  %104 = load ptr, ptr %103, align 8, !tbaa !35
  %105 = icmp eq ptr %104, null
  br i1 %105, label %106, label %110

106:                                              ; preds = %98
  %107 = load ptr, ptr %5, align 8, !tbaa !23
  %108 = load ptr, ptr %4, align 8, !tbaa !23
  %109 = getelementptr inbounds nuw %"class.icu_77::RBBINode", ptr %108, i32 0, i32 1
  store ptr %107, ptr %109, align 8, !tbaa !35
  br label %110

110:                                              ; preds = %106, %98
  br label %111

111:                                              ; preds = %110, %93
  br label %112

112:                                              ; preds = %111, %92
  br label %113

113:                                              ; preds = %112, %74
  call void @llvm.lifetime.end.p0(i64 8, ptr %5) #10
  br label %14, !llvm.loop !55

114:                                              ; preds = %21
  call void @llvm.lifetime.end.p0(i64 8, ptr %4) #10
  call void @llvm.lifetime.end.p0(i64 8, ptr %3) #10
  br label %115

115:                                              ; preds = %114, %8
  ret void
}

; Function Attrs: mustprogress nounwind uwtable
define void @_ZN6icu_778RBBINodeD2Ev(ptr noundef nonnull align 8 dereferenceable(160) %0) unnamed_addr #0 align 2 personality ptr @__gxx_personality_v0 {
  %2 = alloca ptr, align 8
  store ptr %0, ptr %2, align 8, !tbaa !23
  %3 = load ptr, ptr %2, align 8
  %4 = getelementptr inbounds nuw %"class.icu_77::RBBINode", ptr %3, i32 0, i32 4
  %5 = load ptr, ptr %4, align 8, !tbaa !38
  %6 = icmp eq ptr %5, null
  br i1 %6, label %8, label %7

7:                                                ; preds = %1
  call void @_ZN6icu_7710UnicodeSetD1Ev(ptr noundef nonnull align 8 dereferenceable(200) %5) #10
  call void @_ZN6icu_777UMemorydlEPv(ptr noundef %5) #10
  br label %8

8:                                                ; preds = %7, %1
  %9 = getelementptr inbounds nuw %"class.icu_77::RBBINode", ptr %3, i32 0, i32 4
  store ptr null, ptr %9, align 8, !tbaa !38
  %10 = getelementptr inbounds nuw %"class.icu_77::RBBINode", ptr %3, i32 0, i32 0
  %11 = load i32, ptr %10, align 8, !tbaa !27
  switch i32 %11, label %13 [
    i32 2, label %12
    i32 0, label %12
  ]

12:                                               ; preds = %8, %8
  br label %22

13:                                               ; preds = %8
  %14 = getelementptr inbounds nuw %"class.icu_77::RBBINode", ptr %3, i32 0, i32 2
  %15 = load ptr, ptr %14, align 8, !tbaa !36
  invoke void @_ZN6icu_778RBBINode12NRDeleteNodeEPS0_(ptr noundef %15)
          to label %16 unwind label %48

16:                                               ; preds = %13
  %17 = getelementptr inbounds nuw %"class.icu_77::RBBINode", ptr %3, i32 0, i32 2
  store ptr null, ptr %17, align 8, !tbaa !36
  %18 = getelementptr inbounds nuw %"class.icu_77::RBBINode", ptr %3, i32 0, i32 3
  %19 = load ptr, ptr %18, align 8, !tbaa !37
  invoke void @_ZN6icu_778RBBINode12NRDeleteNodeEPS0_(ptr noundef %19)
          to label %20 unwind label %48

20:                                               ; preds = %16
  %21 = getelementptr inbounds nuw %"class.icu_77::RBBINode", ptr %3, i32 0, i32 3
  store ptr null, ptr %21, align 8, !tbaa !37
  br label %22

22:                                               ; preds = %20, %12
  %23 = getelementptr inbounds nuw %"class.icu_77::RBBINode", ptr %3, i32 0, i32 14
  %24 = load ptr, ptr %23, align 8, !tbaa !47
  %25 = icmp eq ptr %24, null
  br i1 %25, label %30, label %26

26:                                               ; preds = %22
  %27 = load ptr, ptr %24, align 8, !tbaa !52
  %28 = getelementptr inbounds ptr, ptr %27, i64 1
  %29 = load ptr, ptr %28, align 8
  call void %29(ptr noundef nonnull align 8 dereferenceable(40) %24) #10
  br label %30

30:                                               ; preds = %26, %22
  %31 = getelementptr inbounds nuw %"class.icu_77::RBBINode", ptr %3, i32 0, i32 15
  %32 = load ptr, ptr %31, align 8, !tbaa !48
  %33 = icmp eq ptr %32, null
  br i1 %33, label %38, label %34

34:                                               ; preds = %30
  %35 = load ptr, ptr %32, align 8, !tbaa !52
  %36 = getelementptr inbounds ptr, ptr %35, i64 1
  %37 = load ptr, ptr %36, align 8
  call void %37(ptr noundef nonnull align 8 dereferenceable(40) %32) #10
  br label %38

38:                                               ; preds = %34, %30
  %39 = getelementptr inbounds nuw %"class.icu_77::RBBINode", ptr %3, i32 0, i32 16
  %40 = load ptr, ptr %39, align 8, !tbaa !49
  %41 = icmp eq ptr %40, null
  br i1 %41, label %46, label %42

42:                                               ; preds = %38
  %43 = load ptr, ptr %40, align 8, !tbaa !52
  %44 = getelementptr inbounds ptr, ptr %43, i64 1
  %45 = load ptr, ptr %44, align 8
  call void %45(ptr noundef nonnull align 8 dereferenceable(40) %40) #10
  br label %46

46:                                               ; preds = %42, %38
  %47 = getelementptr inbounds nuw %"class.icu_77::RBBINode", ptr %3, i32 0, i32 6
  call void @_ZN6icu_7713UnicodeStringD1Ev(ptr noundef nonnull align 8 dereferenceable(64) %47) #10
  ret void

48:                                               ; preds = %16, %13
  %49 = landingpad { ptr, i32 }
          catch ptr null
  %50 = extractvalue { ptr, i32 } %49, 0
  call void @__clang_call_terminate(ptr %50) #12
  unreachable
}