; Function Attrs: mustprogress nounwind uwtable
define void @_ZN6icu_778RBBINodeD2Ev(ptr noundef nonnull align 8 dereferenceable(160) %0) unnamed_addr #0 align 2 personality ptr @__gxx_personality_v0 {
  %2 = getelementptr inbounds nuw i8, ptr %0, i64 32
  %3 = load ptr, ptr %2, align 8, !tbaa !32
  %4 = icmp eq ptr %3, null
  br i1 %4, label %6, label %5

5:                                                ; preds = %1
  tail call void @_ZN6icu_7710UnicodeSetD1Ev(ptr noundef nonnull align 8 dereferenceable(200) %3) #12
  tail call void @_ZN6icu_777UMemorydlEPv(ptr noundef nonnull %3) #12
  br label %6

6:                                                ; preds = %5, %1
  store ptr null, ptr %2, align 8, !tbaa !32
  %7 = load i32, ptr %0, align 8, !tbaa !18
  switch i32 %7, label %8 [
    i32 2, label %103
    i32 0, label %103
  ]

8:                                                ; preds = %6
  %9 = getelementptr inbounds nuw i8, ptr %0, i64 16
  %10 = load ptr, ptr %9, align 8, !tbaa !39
  %11 = icmp eq ptr %10, null
  br i1 %11, label %_ZN6icu_778RBBINode12NRDeleteNodeEPS0_.exit, label %12

12:                                               ; preds = %8
  %13 = getelementptr inbounds nuw i8, ptr %10, i64 8
  %14 = load ptr, ptr %13, align 8, !tbaa !40
  %.not.i = icmp eq ptr %10, %14
  br i1 %.not.i, label %_ZN6icu_778RBBINode12NRDeleteNodeEPS0_.exit, label %.lr.ph.i

.lr.ph.i:                                         ; preds = %12, %52
  %.037.i = phi ptr [ %.1.i, %52 ], [ %10, %12 ]
  %15 = getelementptr inbounds nuw i8, ptr %.037.i, i64 16
  %16 = load ptr, ptr %15, align 8, !tbaa !39
  %17 = icmp eq ptr %16, null
  br i1 %17, label %18, label %22

18:                                               ; preds = %.lr.ph.i
  %19 = getelementptr inbounds nuw i8, ptr %.037.i, i64 24
  %20 = load ptr, ptr %19, align 8, !tbaa !41
  %21 = icmp eq ptr %20, null
  br i1 %21, label %24, label %22

22:                                               ; preds = %18, %.lr.ph.i
  %23 = load i32, ptr %.037.i, align 8, !tbaa !18
  switch i32 %23, label %38 [
    i32 2, label %24
    i32 0, label %24
  ]

24:                                               ; preds = %22, %22, %18
  %25 = getelementptr inbounds nuw i8, ptr %.037.i, i64 8
  %26 = load ptr, ptr %25, align 8, !tbaa !40
  %.not36.i = icmp eq ptr %26, null
  br i1 %.not36.i, label %37, label %27

27:                                               ; preds = %24
  %28 = getelementptr inbounds nuw i8, ptr %26, i64 16
  %29 = load ptr, ptr %28, align 8, !tbaa !39
  %30 = icmp eq ptr %29, %.037.i
  br i1 %30, label %31, label %32

31:                                               ; preds = %27
  store ptr null, ptr %28, align 8, !tbaa !39
  br label %37

32:                                               ; preds = %27
  %33 = getelementptr inbounds nuw i8, ptr %26, i64 24
  %34 = load ptr, ptr %33, align 8, !tbaa !41
  %35 = icmp eq ptr %34, %.037.i
  br i1 %35, label %36, label %37

36:                                               ; preds = %32
  store ptr null, ptr %33, align 8, !tbaa !41
  br label %37

37:                                               ; preds = %36, %32, %31, %24
  tail call void @_ZN6icu_778RBBINodeD1Ev(ptr noundef nonnull align 8 dereferenceable(160) %.037.i) #12
  tail call void @_ZN6icu_777UMemorydlEPv(ptr noundef nonnull %.037.i) #12
  br label %52

38:                                               ; preds = %22
  br i1 %17, label %44, label %39

39:                                               ; preds = %38
  %40 = getelementptr inbounds nuw i8, ptr %16, i64 8
  %41 = load ptr, ptr %40, align 8, !tbaa !40
  %42 = icmp eq ptr %41, null
  br i1 %42, label %43, label %52

43:                                               ; preds = %39
  store ptr %.037.i, ptr %40, align 8, !tbaa !40
  br label %52

44:                                               ; preds = %38
  %45 = getelementptr inbounds nuw i8, ptr %.037.i, i64 24
  %46 = load ptr, ptr %45, align 8, !tbaa !41
  %.not35.i = icmp eq ptr %46, null
  br i1 %.not35.i, label %52, label %47

47:                                               ; preds = %44
  %48 = getelementptr inbounds nuw i8, ptr %46, i64 8
  %49 = load ptr, ptr %48, align 8, !tbaa !40
  %50 = icmp eq ptr %49, null
  br i1 %50, label %51, label %52

51:                                               ; preds = %47
  store ptr %.037.i, ptr %48, align 8, !tbaa !40
  br label %52

52:                                               ; preds = %51, %47, %44, %43, %39, %37
  %.1.i = phi ptr [ %26, %37 ], [ %16, %43 ], [ %16, %39 ], [ %46, %51 ], [ %46, %47 ], [ %.037.i, %44 ]
  %53 = icmp ne ptr %.1.i, %14
  %54 = icmp ne ptr %.1.i, null
  %55 = and i1 %53, %54
  br i1 %55, label %.lr.ph.i, label %_ZN6icu_778RBBINode12NRDeleteNodeEPS0_.exit, !llvm.loop !42

_ZN6icu_778RBBINode12NRDeleteNodeEPS0_.exit:      ; preds = %52, %8, %12
  store ptr null, ptr %9, align 8, !tbaa !39
  %56 = getelementptr inbounds nuw i8, ptr %0, i64 24
  %57 = load ptr, ptr %56, align 8, !tbaa !41
  %58 = icmp eq ptr %57, null
  br i1 %58, label %_ZN6icu_778RBBINode12NRDeleteNodeEPS0_.exit10, label %59

59:                                               ; preds = %_ZN6icu_778RBBINode12NRDeleteNodeEPS0_.exit
  %60 = getelementptr inbounds nuw i8, ptr %57, i64 8
  %61 = load ptr, ptr %60, align 8, !tbaa !40
  %.not.i4 = icmp eq ptr %57, %61
  br i1 %.not.i4, label %_ZN6icu_778RBBINode12NRDeleteNodeEPS0_.exit10, label %.lr.ph.i5

.lr.ph.i5:                                        ; preds = %59, %99
  %.037.i6 = phi ptr [ %.1.i8, %99 ], [ %57, %59 ]
  %62 = getelementptr inbounds nuw i8, ptr %.037.i6, i64 16
  %63 = load ptr, ptr %62, align 8, !tbaa !39
  %64 = icmp eq ptr %63, null
  br i1 %64, label %65, label %69

65:                                               ; preds = %.lr.ph.i5
  %66 = getelementptr inbounds nuw i8, ptr %.037.i6, i64 24
  %67 = load ptr, ptr %66, align 8, !tbaa !41
  %68 = icmp eq ptr %67, null
  br i1 %68, label %71, label %69

69:                                               ; preds = %65, %.lr.ph.i5
  %70 = load i32, ptr %.037.i6, align 8, !tbaa !18
  switch i32 %70, label %85 [
    i32 2, label %71
    i32 0, label %71
  ]

71:                                               ; preds = %69, %69, %65
  %72 = getelementptr inbounds nuw i8, ptr %.037.i6, i64 8
  %73 = load ptr, ptr %72, align 8, !tbaa !40
  %.not36.i7 = icmp eq ptr %73, null
  br i1 %.not36.i7, label %84, label %74

74:                                               ; preds = %71
  %75 = getelementptr inbounds nuw i8, ptr %73, i64 16
  %76 = load ptr, ptr %75, align 8, !tbaa !39
  %77 = icmp eq ptr %76, %.037.i6
  br i1 %77, label %78, label %79

78:                                               ; preds = %74
  store ptr null, ptr %75, align 8, !tbaa !39
  br label %84

79:                                               ; preds = %74
  %80 = getelementptr inbounds nuw i8, ptr %73, i64 24
  %81 = load ptr, ptr %80, align 8, !tbaa !41
  %82 = icmp eq ptr %81, %.037.i6
  br i1 %82, label %83, label %84

83:                                               ; preds = %79
  store ptr null, ptr %80, align 8, !tbaa !41
  br label %84

84:                                               ; preds = %83, %79, %78, %71
  tail call void @_ZN6icu_778RBBINodeD1Ev(ptr noundef nonnull align 8 dereferenceable(160) %.037.i6) #12
  tail call void @_ZN6icu_777UMemorydlEPv(ptr noundef nonnull %.037.i6) #12
  br label %99

85:                                               ; preds = %69
  br i1 %64, label %91, label %86

86:                                               ; preds = %85
  %87 = getelementptr inbounds nuw i8, ptr %63, i64 8
  %88 = load ptr, ptr %87, align 8, !tbaa !40
  %89 = icmp eq ptr %88, null
  br i1 %89, label %90, label %99

90:                                               ; preds = %86
  store ptr %.037.i6, ptr %87, align 8, !tbaa !40
  br label %99

91:                                               ; preds = %85
  %92 = getelementptr inbounds nuw i8, ptr %.037.i6, i64 24
  %93 = load ptr, ptr %92, align 8, !tbaa !41
  %.not35.i9 = icmp eq ptr %93, null
  br i1 %.not35.i9, label %99, label %94

94:                                               ; preds = %91
  %95 = getelementptr inbounds nuw i8, ptr %93, i64 8
  %96 = load ptr, ptr %95, align 8, !tbaa !40
  %97 = icmp eq ptr %96, null
  br i1 %97, label %98, label %99

98:                                               ; preds = %94
  store ptr %.037.i6, ptr %95, align 8, !tbaa !40
  br label %99

99:                                               ; preds = %98, %94, %91, %90, %86, %84
  %.1.i8 = phi ptr [ %73, %84 ], [ %63, %90 ], [ %63, %86 ], [ %93, %98 ], [ %93, %94 ], [ %.037.i6, %91 ]
  %100 = icmp ne ptr %.1.i8, %61
  %101 = icmp ne ptr %.1.i8, null
  %102 = and i1 %100, %101
  br i1 %102, label %.lr.ph.i5, label %_ZN6icu_778RBBINode12NRDeleteNodeEPS0_.exit10, !llvm.loop !42

_ZN6icu_778RBBINode12NRDeleteNodeEPS0_.exit10:    ; preds = %99, %_ZN6icu_778RBBINode12NRDeleteNodeEPS0_.exit, %59
  store ptr null, ptr %56, align 8, !tbaa !41
  br label %103

103:                                              ; preds = %6, %6, %_ZN6icu_778RBBINode12NRDeleteNodeEPS0_.exit10
  %104 = getelementptr inbounds nuw i8, ptr %0, i64 136
  %105 = load ptr, ptr %104, align 8, !tbaa !28
  %106 = icmp eq ptr %105, null
  br i1 %106, label %111, label %107

107:                                              ; preds = %103
  %108 = load ptr, ptr %105, align 8, !tbaa !15
  %109 = getelementptr inbounds nuw i8, ptr %108, i64 8
  %110 = load ptr, ptr %109, align 8
  tail call void %110(ptr noundef nonnull align 8 dereferenceable(40) %105) #12
  br label %111

111:                                              ; preds = %107, %103
  %112 = getelementptr inbounds nuw i8, ptr %0, i64 144
  %113 = load ptr, ptr %112, align 8, !tbaa !29
  %114 = icmp eq ptr %113, null
  br i1 %114, label %119, label %115

115:                                              ; preds = %111
  %116 = load ptr, ptr %113, align 8, !tbaa !15
  %117 = getelementptr inbounds nuw i8, ptr %116, i64 8
  %118 = load ptr, ptr %117, align 8
  tail call void %118(ptr noundef nonnull align 8 dereferenceable(40) %113) #12
  br label %119

119:                                              ; preds = %115, %111
  %120 = getelementptr inbounds nuw i8, ptr %0, i64 152
  %121 = load ptr, ptr %120, align 8, !tbaa !30
  %122 = icmp eq ptr %121, null
  br i1 %122, label %127, label %123

123:                                              ; preds = %119
  %124 = load ptr, ptr %121, align 8, !tbaa !15
  %125 = getelementptr inbounds nuw i8, ptr %124, i64 8
  %126 = load ptr, ptr %125, align 8
  tail call void %126(ptr noundef nonnull align 8 dereferenceable(40) %121) #12
  br label %127

127:                                              ; preds = %123, %119
  %128 = getelementptr inbounds nuw i8, ptr %0, i64 48
  tail call void @_ZN6icu_7713UnicodeStringD1Ev(ptr noundef nonnull align 8 dereferenceable(64) %128) #12
  ret void
}